(dp1
S'folder'
p2
(dp3
S'length'
p4
I30
sS'unique'
p5
I00
sS'sortable'
p6
I3
sS'sql'
p7
S'CHAR(30)'
p8
sS'notnull'
p9
I00
sS'type'
p10
S'string'
p11
ssS'id'
p12
(dp13
g4
I512
sg5
I00
sg6
I1
sg7
S'INTEGER PRIMARY KEY AUTOINCREMENT'
p14
sg9
I00
sg10
S'id'
p15
ssS'descr'
p16
(dp17
S'sortable'
p18
L4L
sS'sql'
p19
S'TEXT'
p20
sS'length'
p21
L32768L
sS'notnull'
p22
L0L
sS'unique'
p23
L0L
sS'type'
p24
S'text'
p25
ssS'name'
p26
(dp27
g4
I512
sg5
I00
sg6
I2
sg7
S'CHAR(512)'
p28
sg9
I00
sg10
g11
ss.